; Function Attrs: mustprogress uwtable
define noundef nonnull align 8 dereferenceable(24) ptr @_ZNK6casadi18DaeBuilderInternal7indicesENS_8CategoryE(ptr noundef nonnull readonly align 8 captures(none) dereferenceable(1017) %0, i32 noundef %1) local_unnamed_addr #4 align 2 {
  %3 = getelementptr inbounds nuw i8, ptr %0, i64 760
  %4 = sext i32 %1 to i64
  %5 = getelementptr inbounds nuw i8, ptr %0, i64 768
  %6 = load ptr, ptr %5, align 8, !tbaa !209
  %7 = load ptr, ptr %3, align 8, !tbaa !206
  %8 = ptrtoint ptr %6 to i64
  %9 = ptrtoint ptr %7 to i64
  %10 = sub i64 %8, %9
  %11 = sdiv exact i64 %10, 24
  %.not.i.i.i = icmp ugt i64 %11, %4
  br i1 %.not.i.i.i, label %_ZN6casadi18DaeBuilderInternal7indicesENS_8CategoryE.exit, label %12

12:                                               ; preds = %2
  tail call void (ptr, ...) @_ZSt24__throw_out_of_range_fmtPKcz(ptr noundef nonnull @.str.690, i64 noundef %4, i64 noundef %11) #29
  unreachable

_ZN6casadi18DaeBuilderInternal7indicesENS_8CategoryE.exit: ; preds = %2
  %13 = getelementptr inbounds nuw %"class.std::vector.33", ptr %7, i64 %4
  ret ptr %13
}